; Function Attrs: mustprogress nounwind uwtable
define hidden void @_ZN15JvmtiBreakpointC2EP6Methodl(ptr nocapture noundef nonnull writeonly align 8 dereferenceable(32) %0, ptr noundef %1, i64 noundef %2) unnamed_addr #0 align 2 {
  store ptr getelementptr inbounds inrange(-16, 40) (i8, ptr @_ZTV15JvmtiBreakpoint, i64 16), ptr %0, align 8
  %4 = getelementptr inbounds i8, ptr %0, i64 8
  store ptr %1, ptr %4, align 8
  %5 = getelementptr inbounds i8, ptr %0, i64 16
  %6 = trunc i64 %2 to i32
  store i32 %6, ptr %5, align 8
  %7 = getelementptr inbounds i8, ptr %0, i64 24
  store ptr null, ptr %7, align 8
  %8 = getelementptr inbounds i8, ptr %1, i64 8
  %9 = load ptr, ptr %8, align 8
  %10 = getelementptr inbounds i8, ptr %9, i64 8
  %11 = load ptr, ptr %10, align 8
  %12 = getelementptr inbounds i8, ptr %11, i64 24
  %13 = load ptr, ptr %12, align 8
  %14 = getelementptr inbounds i8, ptr %13, i64 152
  %15 = load ptr, ptr %14, align 8
  %16 = tail call noundef ptr @_ZNK15ClassLoaderData6holderEv(ptr noundef nonnull align 8 dereferenceable(160) %15) #17
  %17 = tail call noundef ptr @_ZN11JvmtiExport17jvmti_oop_storageEv() #17
  %18 = tail call noundef ptr @_ZN10OopStorage8allocateEv(ptr noundef nonnull align 8 dereferenceable(126) %17) #17
  %19 = icmp eq ptr %18, null
  br i1 %19, label %20, label %_ZN9OopHandleC2EP10OopStorageP7oopDesc.exit

20:                                               ; preds = %3
  tail call void (ptr, i32, i64, i32, ptr, ...) @_Z23report_vm_out_of_memoryPKcim11VMErrorTypeS0_z(ptr noundef nonnull @.str.14, i32 noundef 45, i64 noundef 8, i32 noundef -536870911, ptr noundef nonnull @.str.15) #18
  unreachable

_ZN9OopHandleC2EP10OopStorageP7oopDesc.exit:      ; preds = %3
  %21 = load ptr, ptr @_ZN14AccessInternal15RuntimeDispatchILm548932EP7oopDescLNS_11BarrierTypeE0EE11_store_funcE, align 8
  tail call void %21(ptr noundef nonnull %18, ptr noundef %16) #17
  store ptr %18, ptr %7, align 8
  ret void
}